; Function Attrs: nounwind uwtable
define hidden void @SDL_FilterEvents_REAL(ptr noundef readonly captures(none) %0, ptr noundef %1) local_unnamed_addr #0 {
  %3 = load ptr, ptr @SDL_EventQ, align 8
  tail call void @SDL_LockMutex_REAL(ptr noundef %3) #8
  %4 = load ptr, ptr getelementptr inbounds nuw (i8, ptr @SDL_EventQ, i64 24), align 8
  %.not7 = icmp eq ptr %4, null
  br i1 %.not7, label %._crit_edge, label %.lr.ph

.lr.ph:                                           ; preds = %2, %9
  %.08 = phi ptr [ %6, %9 ], [ %4, %2 ]
  %5 = getelementptr inbounds nuw i8, ptr %.08, i64 144
  %6 = load ptr, ptr %5, align 8
  %7 = tail call zeroext i1 %0(ptr noundef %1, ptr noundef nonnull %.08) #8
  br i1 %7, label %9, label %8

8:                                                ; preds = %.lr.ph
  tail call fastcc void @SDL_CutEvent(ptr noundef %.08)
  br label %9

9:                                                ; preds = %.lr.ph, %8
  %.not = icmp eq ptr %6, null
  br i1 %.not, label %._crit_edge, label %.lr.ph, !llvm.loop !19

._crit_edge:                                      ; preds = %9, %2
  %10 = load ptr, ptr @SDL_EventQ, align 8
  tail call void @SDL_UnlockMutex_REAL(ptr noundef %10) #8
  ret void
}